; Function Attrs: mustprogress uwtable
define void @_ZN32pxrInternal_v0_24__pxrReserved__31Tf_ApplyDoubleToStringConverterEdPci(double noundef %0, ptr noundef %1, i32 noundef %2) local_unnamed_addr #0 personality ptr @__gxx_personality_v0 {
  %4 = alloca %"class.pxrInternal_v0_24__pxrReserved__::pxr_double_conversion::StringBuilder", align 8
  %5 = alloca %"class.pxrInternal_v0_24__pxrReserved__::TfCallContext", align 8
  %6 = load atomic i8, ptr @_ZGVZN32pxrInternal_v0_24__pxrReserved__L29Tf_GetDoubleToStringConverterEvE4conv acquire, align 8
  %7 = icmp eq i8 %6, 0
  br i1 %7, label %8, label %_ZN32pxrInternal_v0_24__pxrReserved__L29Tf_GetDoubleToStringConverterEv.exit, !prof !49

8:                                                ; preds = %3
  %9 = tail call i32 @__cxa_guard_acquire(ptr nonnull @_ZGVZN32pxrInternal_v0_24__pxrReserved__L29Tf_GetDoubleToStringConverterEvE4conv) #22
  %.not.i = icmp eq i32 %9, 0
  br i1 %.not.i, label %_ZN32pxrInternal_v0_24__pxrReserved__L29Tf_GetDoubleToStringConverterEv.exit, label %10

10:                                               ; preds = %8
  store i32 0, ptr @_ZZN32pxrInternal_v0_24__pxrReserved__L29Tf_GetDoubleToStringConverterEvE4conv, align 8
  store ptr @.str.15, ptr getelementptr inbounds nuw (i8, ptr @_ZZN32pxrInternal_v0_24__pxrReserved__L29Tf_GetDoubleToStringConverterEvE4conv, i64 8), align 8
  store ptr @.str.16, ptr getelementptr inbounds nuw (i8, ptr @_ZZN32pxrInternal_v0_24__pxrReserved__L29Tf_GetDoubleToStringConverterEvE4conv, i64 16), align 8
  store i8 101, ptr getelementptr inbounds nuw (i8, ptr @_ZZN32pxrInternal_v0_24__pxrReserved__L29Tf_GetDoubleToStringConverterEvE4conv, i64 24), align 8
  store i32 -6, ptr getelementptr inbounds nuw (i8, ptr @_ZZN32pxrInternal_v0_24__pxrReserved__L29Tf_GetDoubleToStringConverterEvE4conv, i64 28), align 4
  store i32 15, ptr getelementptr inbounds nuw (i8, ptr @_ZZN32pxrInternal_v0_24__pxrReserved__L29Tf_GetDoubleToStringConverterEvE4conv, i64 32), align 8
  store i32 0, ptr getelementptr inbounds nuw (i8, ptr @_ZZN32pxrInternal_v0_24__pxrReserved__L29Tf_GetDoubleToStringConverterEvE4conv, i64 36), align 4
  store i32 0, ptr getelementptr inbounds nuw (i8, ptr @_ZZN32pxrInternal_v0_24__pxrReserved__L29Tf_GetDoubleToStringConverterEvE4conv, i64 40), align 8
  store i32 0, ptr getelementptr inbounds nuw (i8, ptr @_ZZN32pxrInternal_v0_24__pxrReserved__L29Tf_GetDoubleToStringConverterEvE4conv, i64 44), align 4
  tail call void @__cxa_guard_release(ptr nonnull @_ZGVZN32pxrInternal_v0_24__pxrReserved__L29Tf_GetDoubleToStringConverterEvE4conv) #22
  br label %_ZN32pxrInternal_v0_24__pxrReserved__L29Tf_GetDoubleToStringConverterEv.exit

_ZN32pxrInternal_v0_24__pxrReserved__L29Tf_GetDoubleToStringConverterEv.exit: ; preds = %3, %8, %10
  store ptr %1, ptr %4, align 8
  %11 = getelementptr inbounds nuw i8, ptr %4, i64 8
  store i32 %2, ptr %11, align 8
  %12 = getelementptr inbounds nuw i8, ptr %4, i64 16
  store i32 0, ptr %12, align 8
  %13 = invoke noundef zeroext i1 @_ZNK32pxrInternal_v0_24__pxrReserved__21pxr_double_conversion23DoubleToStringConverter20ToShortestIeeeNumberEdPNS0_13StringBuilderENS1_8DtoaModeE(ptr noundef nonnull align 8 dereferenceable(48) @_ZZN32pxrInternal_v0_24__pxrReserved__L29Tf_GetDoubleToStringConverterEvE4conv, double noundef %0, ptr noundef nonnull %4, i32 noundef 0)
          to label %_ZNK32pxrInternal_v0_24__pxrReserved__21pxr_double_conversion23DoubleToStringConverter10ToShortestEdPNS0_13StringBuilderE.exit unwind label %29

_ZNK32pxrInternal_v0_24__pxrReserved__21pxr_double_conversion23DoubleToStringConverter10ToShortestEdPNS0_13StringBuilderE.exit: ; preds = %_ZN32pxrInternal_v0_24__pxrReserved__L29Tf_GetDoubleToStringConverterEv.exit
  br i1 %13, label %22, label %14

14:                                               ; preds = %_ZNK32pxrInternal_v0_24__pxrReserved__21pxr_double_conversion23DoubleToStringConverter10ToShortestEdPNS0_13StringBuilderE.exit
  store ptr @.str.11, ptr %5, align 8
  %15 = getelementptr inbounds nuw i8, ptr %5, i64 8
  store ptr @__func__._ZN32pxrInternal_v0_24__pxrReserved__31Tf_ApplyDoubleToStringConverterEfPci, ptr %15, align 8
  %16 = getelementptr inbounds nuw i8, ptr %5, i64 16
  store i64 950, ptr %16, align 8
  %17 = getelementptr inbounds nuw i8, ptr %5, i64 24
  store ptr @__PRETTY_FUNCTION__._ZN32pxrInternal_v0_24__pxrReserved__31Tf_ApplyDoubleToStringConverterEdPci, ptr %17, align 8
  %18 = getelementptr inbounds nuw i8, ptr %5, i64 32
  store i8 0, ptr %18, align 8
  %19 = invoke noundef ptr (ptr, ...) @_ZN32pxrInternal_v0_24__pxrReserved__21Tf_VerifyStringFormatEPKcz(ptr noundef nonnull @.str.13)
          to label %20 unwind label %29

20:                                               ; preds = %14
  %21 = invoke noundef zeroext i1 @_ZN32pxrInternal_v0_24__pxrReserved__21Tf_FailedVerifyHelperERKNS_13TfCallContextEPKcS4_(ptr noundef nonnull align 8 dereferenceable(33) %5, ptr noundef nonnull @.str.14, ptr noundef %19)
          to label %22 unwind label %29

22:                                               ; preds = %20, %_ZNK32pxrInternal_v0_24__pxrReserved__21pxr_double_conversion23DoubleToStringConverter10ToShortestEdPNS0_13StringBuilderE.exit
  %23 = load i32, ptr %12, align 8
  %24 = icmp slt i32 %23, 0
  br i1 %24, label %_ZN32pxrInternal_v0_24__pxrReserved__21pxr_double_conversion13StringBuilderD2Ev.exit, label %25

25:                                               ; preds = %22
  %26 = load ptr, ptr %4, align 8
  %27 = zext nneg i32 %23 to i64
  %28 = getelementptr inbounds i8, ptr %26, i64 %27
  store i8 0, ptr %28, align 1
  br label %_ZN32pxrInternal_v0_24__pxrReserved__21pxr_double_conversion13StringBuilderD2Ev.exit

_ZN32pxrInternal_v0_24__pxrReserved__21pxr_double_conversion13StringBuilderD2Ev.exit: ; preds = %22, %25
  ret void

29:                                               ; preds = %_ZN32pxrInternal_v0_24__pxrReserved__L29Tf_GetDoubleToStringConverterEv.exit, %20, %14
  %30 = landingpad { ptr, i32 }
          cleanup
  %31 = load i32, ptr %12, align 8
  %32 = icmp slt i32 %31, 0
  br i1 %32, label %_ZN32pxrInternal_v0_24__pxrReserved__21pxr_double_conversion13StringBuilderD2Ev.exit5, label %33

33:                                               ; preds = %29
  %34 = load ptr, ptr %4, align 8
  %35 = zext nneg i32 %31 to i64
  %36 = getelementptr inbounds i8, ptr %34, i64 %35
  store i8 0, ptr %36, align 1
  br label %_ZN32pxrInternal_v0_24__pxrReserved__21pxr_double_conversion13StringBuilderD2Ev.exit5

_ZN32pxrInternal_v0_24__pxrReserved__21pxr_double_conversion13StringBuilderD2Ev.exit5: ; preds = %29, %33
  resume { ptr, i32 } %30
}